(ilgrass
ParamEntrenoeud
p0
(dp1
S'final_length'
p2
I10
sS'id_plante'
p3
cnumpy.core.multiarray
scalar
p4
(cnumpy
dtype
p5
(S'i4'
p6
I0
I1
tp7
Rp8
(I3
S'<'
p9
NNNI-1
I-1
I0
tp10
bS'\x00\x00\x00\x00'
p11
tp12
Rp13
sS'id_talle'
p14
I0
sS'id_rang'
p15
I2
sS'internode_type'
p16
S'short_internode'
p17
sS'width'
p18
I2
sS'length'
p19
I0
sS'topology'
p20
(I0
tp21
sb.