(ilgrass
ParamPhytomere
p0
(dp1
S'id_plante'
p2
cnumpy.core.multiarray
scalar
p3
(cnumpy
dtype
p4
(S'i4'
p5
I0
I1
tp6
Rp7
(I3
S'<'
p8
NNNI-1
I-1
I0
tp9
bS'\x00\x00\x00\x00'
p10
tp11
Rp12
sS'id_talle'
p13
I0
sS'age'
p14
I48
sS'id_rang'
p15
I2
sS'angletal'
p16
I0
sS'organ_lengths'
p17
(dp18
sS'topology'
p19
(I0
tp20
sb.