(ilgrass
ParamPlante
p0
(dp1
S'id_geno'
p2
cnumpy.core.multiarray
scalar
p3
(cnumpy
dtype
p4
(S'f8'
p5
I0
I1
tp6
Rp7
(I3
S'<'
p8
NNNI-1
I-1
I0
tp9
bS'\x00\x00\x00\x00\x00\x00\xf0?'
p10
tp11
Rp12
sS'id_plante'
p13
g3
(g4
(S'i4'
p14
I0
I1
tp15
Rp16
(I3
S'<'
p17
NNNI-1
I-1
I0
tp18
bS'\x00\x00\x00\x00'
p19
tp20
Rp21
sb.